target datalayout = "e-m:e-p270:32:32-p271:32:32-p272:64:64-i64:64-i128:128-f80:128-n8:16:32:64-S128"
target triple = "x86_64-pc-linux-gnu"

%struct.DdManager = type { %struct.DdNode, ptr, ptr, ptr, ptr, ptr, ptr, ptr, i32, i32, double, double, double, i32, i32, i32, i32, i32, i32, ptr, ptr, %struct.DdSubtable, i32, i32, i32, i32, i32, i32, i32, double, i32, i32, i32, ptr, i64, double, i32, ptr, ptr, ptr, ptr, ptr, ptr, ptr, i32, ptr, ptr, ptr, ptr, ptr, ptr, i32, i32, i32, double, i32, i32, i32, i32, double, double, i32, i32, i32, i32, i32, i32, i32, i32, i32, ptr, ptr, i32, i32, i32, i32, i32, i32, ptr, ptr, ptr, ptr, ptr, ptr, ptr, ptr, i32, i64, i64, i64, i32, i64, i64, double, double, double, double, double, double, i32, ptr, ptr, i64 }
%struct.DdNode = type { i32, i32, ptr, %union.anon, i64 }
%union.anon = type { %struct.DdChildren }
%struct.DdChildren = type { ptr, ptr }
%struct.DdSubtable = type { ptr, i32, i32, i32, i32, i32, i32, i32, i32, i32, i32, i32 }

; Function Attrs: nounwind uwtable
define internal ptr @mintermsFromUniverse(ptr noundef %0, ptr noundef %1, i32 noundef %2, double noundef %3, i32 noundef %4) #0 {
  %6 = alloca ptr, align 8
  %7 = alloca ptr, align 8
  %8 = alloca ptr, align 8
  %9 = alloca i32, align 4
  %10 = alloca double, align 8
  %11 = alloca i32, align 4
  %12 = alloca ptr, align 8
  %13 = alloca ptr, align 8
  %14 = alloca ptr, align 8
  %15 = alloca ptr, align 8
  %16 = alloca double, align 8
  %17 = alloca double, align 8
  %18 = alloca i32, align 4
  store ptr %0, ptr %7, align 8, !tbaa !3
  store ptr %1, ptr %8, align 8, !tbaa !10
  store i32 %2, ptr %9, align 4, !tbaa !12
  store double %3, ptr %10, align 8, !tbaa !14
  store i32 %4, ptr %11, align 4, !tbaa !12
  call void @llvm.lifetime.start.p0(i64 8, ptr %12) #5
  call void @llvm.lifetime.start.p0(i64 8, ptr %13) #5
  call void @llvm.lifetime.start.p0(i64 8, ptr %14) #5
  call void @llvm.lifetime.start.p0(i64 8, ptr %15) #5
  call void @llvm.lifetime.start.p0(i64 8, ptr %16) #5
  call void @llvm.lifetime.start.p0(i64 8, ptr %17) #5
  %19 = load ptr, ptr %7, align 8, !tbaa !3
  %20 = getelementptr inbounds nuw %struct.DdManager, ptr %19, i32 0, i32 1
  %21 = load ptr, ptr %20, align 8, !tbaa !30
  store ptr %21, ptr %12, align 8, !tbaa !8
  %22 = load ptr, ptr %12, align 8, !tbaa !8
  %23 = ptrtoint ptr %22 to i64
  %24 = xor i64 %23, 1
  %25 = inttoptr i64 %24 to ptr
  store ptr %25, ptr %13, align 8, !tbaa !8
  %26 = load i32, ptr %9, align 4, !tbaa !12
  %27 = sitofp i32 %26 to double
  %28 = call double @pow(double noundef 2.000000e+00, double noundef %27) #5, !tbaa !12
  store double %28, ptr %16, align 8, !tbaa !14
  %29 = load double, ptr %16, align 8, !tbaa !14
  %30 = fdiv double %29, 2.000000e+00
  store double %30, ptr %17, align 8, !tbaa !14
  %31 = load double, ptr %10, align 8, !tbaa !14
  %32 = load double, ptr %16, align 8, !tbaa !14
  %33 = fcmp oeq double %31, %32
  br i1 %33, label %34, label %36

34:                                               ; preds = %5
  %35 = load ptr, ptr %12, align 8, !tbaa !8
  store ptr %35, ptr %6, align 8
  store i32 1, ptr %18, align 4
  br label %139

36:                                               ; preds = %5
  %37 = load double, ptr %10, align 8, !tbaa !14
  %38 = fcmp oeq double %37, 0.000000e+00
  br i1 %38, label %39, label %41

39:                                               ; preds = %36
  %40 = load ptr, ptr %13, align 8, !tbaa !8
  store ptr %40, ptr %6, align 8
  store i32 1, ptr %18, align 4
  br label %139

41:                                               ; preds = %36
  %42 = load double, ptr %10, align 8, !tbaa !14
  %43 = load double, ptr %17, align 8, !tbaa !14
  %44 = fcmp oeq double %42, %43
  br i1 %44, label %45, label %51

45:                                               ; preds = %41
  %46 = load ptr, ptr %8, align 8, !tbaa !10
  %47 = load i32, ptr %11, align 4, !tbaa !12
  %48 = sext i32 %47 to i64
  %49 = getelementptr inbounds ptr, ptr %46, i64 %48
  %50 = load ptr, ptr %49, align 8, !tbaa !8
  store ptr %50, ptr %6, align 8
  store i32 1, ptr %18, align 4
  br label %139

51:                                               ; preds = %41
  %52 = load double, ptr %10, align 8, !tbaa !14
  %53 = load double, ptr %17, align 8, !tbaa !14
  %54 = fcmp ogt double %52, %53
  br i1 %54, label %55, label %86

55:                                               ; preds = %51
  %56 = load ptr, ptr %7, align 8, !tbaa !3
  %57 = load ptr, ptr %8, align 8, !tbaa !10
  %58 = load i32, ptr %9, align 4, !tbaa !12
  %59 = sub nsw i32 %58, 1
  %60 = load double, ptr %10, align 8, !tbaa !14
  %61 = load double, ptr %17, align 8, !tbaa !14
  %62 = fsub double %60, %61
  %63 = load i32, ptr %11, align 4, !tbaa !12
  %64 = add nsw i32 %63, 1
  %65 = call ptr @mintermsFromUniverse(ptr noundef %56, ptr noundef %57, i32 noundef %59, double noundef %62, i32 noundef %64)
  store ptr %65, ptr %14, align 8, !tbaa !8
  %66 = load ptr, ptr %14, align 8, !tbaa !8
  %67 = icmp eq ptr %66, null
  br i1 %67, label %68, label %69

68:                                               ; preds = %55
  store ptr null, ptr %6, align 8
  store i32 1, ptr %18, align 4
  br label %139

69:                                               ; preds = %55
  %70 = load ptr, ptr %14, align 8, !tbaa !8
  %71 = ptrtoint ptr %70 to i64
  %72 = and i64 %71, -2
  %73 = inttoptr i64 %72 to ptr
  %74 = getelementptr inbounds nuw %struct.DdNode, ptr %73, i32 0, i32 1
  %75 = load i32, ptr %74, align 4, !tbaa !39
  %76 = add i32 %75, 1
  store i32 %76, ptr %74, align 4, !tbaa !39
  %77 = load ptr, ptr %7, align 8, !tbaa !3
  %78 = load ptr, ptr %8, align 8, !tbaa !10
  %79 = load i32, ptr %11, align 4, !tbaa !12
  %80 = sext i32 %79 to i64
  %81 = getelementptr inbounds ptr, ptr %78, i64 %80
  %82 = load ptr, ptr %81, align 8, !tbaa !8
  %83 = load ptr, ptr %12, align 8, !tbaa !8
  %84 = load ptr, ptr %14, align 8, !tbaa !8
  %85 = call ptr @cuddBddIteRecur(ptr noundef %77, ptr noundef %82, ptr noundef %83, ptr noundef %84)
  store ptr %85, ptr %15, align 8, !tbaa !8
  br label %114

86:                                               ; preds = %51
  %87 = load ptr, ptr %7, align 8, !tbaa !3
  %88 = load ptr, ptr %8, align 8, !tbaa !10
  %89 = load i32, ptr %9, align 4, !tbaa !12
  %90 = sub nsw i32 %89, 1
  %91 = load double, ptr %10, align 8, !tbaa !14
  %92 = load i32, ptr %11, align 4, !tbaa !12
  %93 = add nsw i32 %92, 1
  %94 = call ptr @mintermsFromUniverse(ptr noundef %87, ptr noundef %88, i32 noundef %90, double noundef %91, i32 noundef %93)
  store ptr %94, ptr %14, align 8, !tbaa !8
  %95 = load ptr, ptr %14, align 8, !tbaa !8
  %96 = icmp eq ptr %95, null
  br i1 %96, label %97, label %98

97:                                               ; preds = %86
  store ptr null, ptr %6, align 8
  store i32 1, ptr %18, align 4
  br label %139

98:                                               ; preds = %86
  %99 = load ptr, ptr %14, align 8, !tbaa !8
  %100 = ptrtoint ptr %99 to i64
  %101 = and i64 %100, -2
  %102 = inttoptr i64 %101 to ptr
  %103 = getelementptr inbounds nuw %struct.DdNode, ptr %102, i32 0, i32 1
  %104 = load i32, ptr %103, align 4, !tbaa !39
  %105 = add i32 %104, 1
  store i32 %105, ptr %103, align 4, !tbaa !39
  %106 = load ptr, ptr %7, align 8, !tbaa !3
  %107 = load ptr, ptr %8, align 8, !tbaa !10
  %108 = load i32, ptr %11, align 4, !tbaa !12
  %109 = sext i32 %108 to i64
  %110 = getelementptr inbounds ptr, ptr %107, i64 %109
  %111 = load ptr, ptr %110, align 8, !tbaa !8
  %112 = load ptr, ptr %14, align 8, !tbaa !8
  %113 = call ptr @cuddBddAndRecur(ptr noundef %106, ptr noundef %111, ptr noundef %112)
  store ptr %113, ptr %15, align 8, !tbaa !8
  br label %114

114:                                              ; preds = %98, %69
  br label %115

115:                                              ; preds = %114
  %116 = load ptr, ptr %15, align 8, !tbaa !8
  %117 = icmp eq ptr %116, null
  br i1 %117, label %118, label %121

118:                                              ; preds = %115
  %119 = load ptr, ptr %7, align 8, !tbaa !3
  %120 = load ptr, ptr %14, align 8, !tbaa !8
  call void @Cudd_RecursiveDeref(ptr noundef %119, ptr noundef %120)
  store ptr null, ptr %6, align 8
  store i32 1, ptr %18, align 4
  br label %139

121:                                              ; preds = %115
  %122 = load ptr, ptr %15, align 8, !tbaa !8
  %123 = ptrtoint ptr %122 to i64
  %124 = and i64 %123, -2
  %125 = inttoptr i64 %124 to ptr
  %126 = getelementptr inbounds nuw %struct.DdNode, ptr %125, i32 0, i32 1
  %127 = load i32, ptr %126, align 4, !tbaa !39
  %128 = add i32 %127, 1
  store i32 %128, ptr %126, align 4, !tbaa !39
  %129 = load ptr, ptr %7, align 8, !tbaa !3
  %130 = load ptr, ptr %14, align 8, !tbaa !8
  call void @Cudd_RecursiveDeref(ptr noundef %129, ptr noundef %130)
  %131 = load ptr, ptr %15, align 8, !tbaa !8
  %132 = ptrtoint ptr %131 to i64
  %133 = and i64 %132, -2
  %134 = inttoptr i64 %133 to ptr
  %135 = getelementptr inbounds nuw %struct.DdNode, ptr %134, i32 0, i32 1
  %136 = load i32, ptr %135, align 4, !tbaa !39
  %137 = add i32 %136, -1
  store i32 %137, ptr %135, align 4, !tbaa !39
  %138 = load ptr, ptr %15, align 8, !tbaa !8
  store ptr %138, ptr %6, align 8
  store i32 1, ptr %18, align 4
  br label %139

139:                                              ; preds = %121, %118, %97, %68, %45, %39, %34
  call void @llvm.lifetime.end.p0(i64 8, ptr %17) #5
  call void @llvm.lifetime.end.p0(i64 8, ptr %16) #5
  call void @llvm.lifetime.end.p0(i64 8, ptr %15) #5
  call void @llvm.lifetime.end.p0(i64 8, ptr %14) #5
  call void @llvm.lifetime.end.p0(i64 8, ptr %13) #5
  call void @llvm.lifetime.end.p0(i64 8, ptr %12) #5
  %140 = load ptr, ptr %6, align 8
  ret ptr %140
}