; Function Attrs: nounwind uwtable
define internal fastcc ptr @mintermsFromUniverse(ptr noundef %0, ptr noundef nonnull %1, i32 noundef %2, double noundef %3, i32 noundef %4) unnamed_addr #0 {
  %6 = getelementptr inbounds nuw i8, ptr %0, i64 40
  %7 = load ptr, ptr %6, align 8, !tbaa !24
  %ldexp = tail call double @ldexp(double 1.000000e+00, i32 %2) #8
  %8 = fmul double %ldexp, 5.000000e-01
  %9 = fcmp oeq double %3, %ldexp
  br i1 %9, label %67, label %10

10:                                               ; preds = %5
  %11 = ptrtoint ptr %7 to i64
  %12 = xor i64 %11, 1
  %13 = inttoptr i64 %12 to ptr
  %14 = fcmp oeq double %3, 0.000000e+00
  br i1 %14, label %67, label %15

15:                                               ; preds = %10
  %16 = fcmp oeq double %3, %8
  br i1 %16, label %17, label %21

17:                                               ; preds = %15
  %18 = sext i32 %4 to i64
  %19 = getelementptr inbounds ptr, ptr %1, i64 %18
  %20 = load ptr, ptr %19, align 8, !tbaa !29
  br label %67

21:                                               ; preds = %15
  %22 = fcmp ogt double %3, %8
  %23 = add nsw i32 %2, -1
  br i1 %22, label %24, label %40

24:                                               ; preds = %21
  %25 = fsub double %3, %8
  %26 = add nsw i32 %4, 1
  %27 = tail call fastcc ptr @mintermsFromUniverse(ptr noundef nonnull %0, ptr noundef %1, i32 noundef %23, double noundef %25, i32 noundef %26)
  %28 = icmp eq ptr %27, null
  br i1 %28, label %67, label %29

29:                                               ; preds = %24
  %30 = ptrtoint ptr %27 to i64
  %31 = and i64 %30, -2
  %32 = inttoptr i64 %31 to ptr
  %33 = getelementptr inbounds nuw i8, ptr %32, i64 4
  %34 = load i32, ptr %33, align 4, !tbaa !26
  %35 = add i32 %34, 1
  store i32 %35, ptr %33, align 4, !tbaa !26
  %36 = sext i32 %4 to i64
  %37 = getelementptr inbounds ptr, ptr %1, i64 %36
  %38 = load ptr, ptr %37, align 8, !tbaa !29
  %39 = tail call ptr @cuddBddIteRecur(ptr noundef nonnull %0, ptr noundef %38, ptr noundef %7, ptr noundef nonnull %27) #8
  br label %55

40:                                               ; preds = %21
  %41 = add nsw i32 %4, 1
  %42 = tail call fastcc ptr @mintermsFromUniverse(ptr noundef nonnull %0, ptr noundef %1, i32 noundef %23, double noundef %3, i32 noundef %41)
  %43 = icmp eq ptr %42, null
  br i1 %43, label %67, label %44

44:                                               ; preds = %40
  %45 = ptrtoint ptr %42 to i64
  %46 = and i64 %45, -2
  %47 = inttoptr i64 %46 to ptr
  %48 = getelementptr inbounds nuw i8, ptr %47, i64 4
  %49 = load i32, ptr %48, align 4, !tbaa !26
  %50 = add i32 %49, 1
  store i32 %50, ptr %48, align 4, !tbaa !26
  %51 = sext i32 %4 to i64
  %52 = getelementptr inbounds ptr, ptr %1, i64 %51
  %53 = load ptr, ptr %52, align 8, !tbaa !29
  %54 = tail call ptr @cuddBddAndRecur(ptr noundef nonnull %0, ptr noundef %53, ptr noundef nonnull %42) #8
  br label %55

55:                                               ; preds = %29, %44
  %.048 = phi ptr [ %39, %29 ], [ %54, %44 ]
  %.047 = phi ptr [ %27, %29 ], [ %42, %44 ]
  %56 = icmp eq ptr %.048, null
  br i1 %56, label %57, label %58

57:                                               ; preds = %55
  tail call void @Cudd_RecursiveDeref(ptr noundef nonnull %0, ptr noundef nonnull %.047) #8
  br label %67

58:                                               ; preds = %55
  %59 = ptrtoint ptr %.048 to i64
  %60 = and i64 %59, -2
  %61 = inttoptr i64 %60 to ptr
  %62 = getelementptr inbounds nuw i8, ptr %61, i64 4
  %63 = load i32, ptr %62, align 4, !tbaa !26
  %64 = add i32 %63, 1
  store i32 %64, ptr %62, align 4, !tbaa !26
  tail call void @Cudd_RecursiveDeref(ptr noundef nonnull %0, ptr noundef nonnull %.047) #8
  %65 = load i32, ptr %62, align 4, !tbaa !26
  %66 = add i32 %65, -1
  store i32 %66, ptr %62, align 4, !tbaa !26
  br label %67

67:                                               ; preds = %40, %24, %10, %5, %58, %57, %17
  %.0 = phi ptr [ %20, %17 ], [ null, %57 ], [ %.048, %58 ], [ %7, %5 ], [ %13, %10 ], [ null, %24 ], [ null, %40 ]
  ret ptr %.0
}